target datalayout = "e-m:e-p270:32:32-p271:32:32-p272:64:64-i64:64-i128:128-f80:128-n8:16:32:64-S128"
target triple = "x86_64-pc-linux-gnu"

%struct.FT_Vector_ = type { i64, i64 }
%struct.GPData = type { i32, i32, i32, i32, i32, ptr, ptr }

; Function Attrs: nounwind uwtable
define internal void @addCoords(ptr noundef %0, ptr noundef %1) #0 {
  %3 = alloca ptr, align 8
  %4 = alloca ptr, align 8
  store ptr %0, ptr %3, align 8
  store ptr %1, ptr %4, align 8
  %5 = load ptr, ptr %4, align 8
  %6 = getelementptr inbounds %struct.FT_Vector_, ptr %5, i32 0, i32 0
  %7 = load i64, ptr %6, align 8
  %8 = sitofp i64 %7 to float
  %9 = fdiv float %8, 6.400000e+01
  %10 = load ptr, ptr %3, align 8
  %11 = getelementptr inbounds %struct.GPData, ptr %10, i32 0, i32 6
  %12 = load ptr, ptr %11, align 8
  %13 = load ptr, ptr %3, align 8
  %14 = getelementptr inbounds %struct.GPData, ptr %13, i32 0, i32 1
  %15 = load i32, ptr %14, align 4
  %16 = add nsw i32 %15, 1
  store i32 %16, ptr %14, align 4
  %17 = sext i32 %15 to i64
  %18 = getelementptr inbounds float, ptr %12, i64 %17
  store float %9, ptr %18, align 4
  %19 = load ptr, ptr %4, align 8
  %20 = getelementptr inbounds %struct.FT_Vector_, ptr %19, i32 0, i32 1
  %21 = load i64, ptr %20, align 8
  %22 = sitofp i64 %21 to float
  %23 = fdiv float %22, 6.400000e+01
  %24 = fneg float %23
  %25 = load ptr, ptr %3, align 8
  %26 = getelementptr inbounds %struct.GPData, ptr %25, i32 0, i32 6
  %27 = load ptr, ptr %26, align 8
  %28 = load ptr, ptr %3, align 8
  %29 = getelementptr inbounds %struct.GPData, ptr %28, i32 0, i32 1
  %30 = load i32, ptr %29, align 4
  %31 = add nsw i32 %30, 1
  store i32 %31, ptr %29, align 4
  %32 = sext i32 %30 to i64
  %33 = getelementptr inbounds float, ptr %27, i64 %32
  store float %24, ptr %33, align 4
  ret void
}

; Function Attrs: nounwind uwtable
define internal void @addSeg(ptr noundef %0, i8 noundef signext %1) #0 {
  %3 = alloca ptr, align 8
  %4 = alloca i8, align 1
  store ptr %0, ptr %3, align 8
  store i8 %1, ptr %4, align 1
  %5 = load i8, ptr %4, align 1
  %6 = load ptr, ptr %3, align 8
  %7 = getelementptr inbounds %struct.GPData, ptr %6, i32 0, i32 5
  %8 = load ptr, ptr %7, align 8
  %9 = load ptr, ptr %3, align 8
  %10 = getelementptr inbounds %struct.GPData, ptr %9, i32 0, i32 0
  %11 = load i32, ptr %10, align 8
  %12 = add nsw i32 %11, 1
  store i32 %12, ptr %10, align 8
  %13 = sext i32 %11 to i64
  %14 = getelementptr inbounds i8, ptr %8, i64 %13
  store i8 %5, ptr %14, align 1
  ret void
}

; Function Attrs: nounwind uwtable
define internal i32 @moveTo(ptr noundef %0, ptr noundef %1) #0 {
  %3 = alloca ptr, align 8
  %4 = alloca ptr, align 8
  store ptr %0, ptr %3, align 8
  store ptr %1, ptr %4, align 8
  %5 = load ptr, ptr %4, align 8
  %6 = getelementptr inbounds %struct.GPData, ptr %5, i32 0, i32 1
  %7 = load i32, ptr %6, align 4
  %8 = icmp ne i32 %7, 0
  br i1 %8, label %9, label %11

9:                                                ; preds = %2
  %10 = load ptr, ptr %4, align 8
  call void @addSeg(ptr noundef %10, i8 noundef signext 4)
  br label %11

11:                                               ; preds = %9, %2
  %12 = load ptr, ptr %4, align 8
  %13 = load ptr, ptr %3, align 8
  call void @addCoords(ptr noundef %12, ptr noundef %13)
  %14 = load ptr, ptr %4, align 8
  call void @addSeg(ptr noundef %14, i8 noundef signext 0)
  ret i32 0
}