; Function Attrs: mustprogress nofree norecurse nosync nounwind willreturn memory(write, argmem: readwrite, inaccessiblemem: none) uwtable
define internal noundef i32 @moveTo(ptr nocapture noundef readonly %0, ptr nocapture noundef %1) #16 {
  %3 = getelementptr inbounds i8, ptr %1, i64 4
  %4 = load i32, ptr %3, align 4
  %.not = icmp eq i32 %4, 0
  br i1 %.not, label %12, label %5

5:                                                ; preds = %2
  %6 = getelementptr inbounds i8, ptr %1, i64 24
  %7 = load ptr, ptr %6, align 8
  %8 = load i32, ptr %1, align 8
  %9 = add nsw i32 %8, 1
  store i32 %9, ptr %1, align 8
  %10 = sext i32 %8 to i64
  %11 = getelementptr inbounds i8, ptr %7, i64 %10
  store i8 4, ptr %11, align 1
  %.pre = load i32, ptr %3, align 4
  br label %12

12:                                               ; preds = %5, %2
  %13 = phi i32 [ %.pre, %5 ], [ 0, %2 ]
  %14 = load i64, ptr %0, align 8
  %15 = sitofp i64 %14 to float
  %16 = fmul float %15, 1.562500e-02
  %17 = getelementptr inbounds i8, ptr %1, i64 32
  %18 = load ptr, ptr %17, align 8
  %19 = add nsw i32 %13, 1
  store i32 %19, ptr %3, align 4
  %20 = sext i32 %13 to i64
  %21 = getelementptr inbounds float, ptr %18, i64 %20
  store float %16, ptr %21, align 4
  %22 = getelementptr inbounds i8, ptr %0, i64 8
  %23 = load i64, ptr %22, align 8
  %24 = sitofp i64 %23 to float
  %25 = fmul float %24, -1.562500e-02
  %26 = load ptr, ptr %17, align 8
  %27 = load i32, ptr %3, align 4
  %28 = add nsw i32 %27, 1
  store i32 %28, ptr %3, align 4
  %29 = sext i32 %27 to i64
  %30 = getelementptr inbounds float, ptr %26, i64 %29
  store float %25, ptr %30, align 4
  %31 = getelementptr inbounds i8, ptr %1, i64 24
  %32 = load ptr, ptr %31, align 8
  %33 = load i32, ptr %1, align 8
  %34 = add nsw i32 %33, 1
  store i32 %34, ptr %1, align 8
  %35 = sext i32 %33 to i64
  %36 = getelementptr inbounds i8, ptr %32, i64 %35
  store i8 0, ptr %36, align 1
  ret i32 0
}